
Memory Configuration

Name             Origin             Length             Attributes
ram              0x00008000         0x00018000
*default*        0x00000000         0xffffffff

Linker script and memory map

LOAD build/boot.o
LOAD build/main.o
LOAD build/gpio.o
LOAD build/uart.o
LOAD build/system_timer.o
LOAD build/morse.o

.text           0x00008000      0x6c0
 *(.text*)
 .text          0x00008000        0xc build/boot.o
                0x00008000                _start
 .text          0x0000800c        0x0 build/main.o
 .text.startup  0x0000800c       0x78 build/main.o
                0x0000800c                main
 .text          0x00008084       0x4c build/gpio.o
                0x00008084                convert_pin_to_gpio
                0x000080a4                convert_gpio_to_pin
                0x000080c8                mmio_write
 .text          0x000080d0      0x2e4 build/uart.o
                0x000080d0                wait_for_tx_slot
                0x000080e8                wait_for_uart_idle
                0x00008100                wait_for_rx_slot
                0x00008118                wait_for_rx_has_char
                0x00008130                delay
                0x00008164                init_uart
                0x00008238                get_char
                0x0000826c                put_char
                0x0000829c                put_string
                0x000082f8                get_string
 .text          0x000083b4      0x1a8 build/system_timer.o
                0x000083b4                timer_delay_us
                0x000083e4                timer_delay_ms
                0x00008418                timer_delay_sec
                0x00008450                timer_one_unit
                0x00008490                timer_three_unit
                0x000084d4                end_of_char
                0x00008518                end_of_word
 .text          0x0000855c      0x164 build/morse.o
                0x0000855c                morse_translate
                0x00008590                dit
                0x000085cc                dah
                0x00008608                blink
                0x00008664                lower_string
                0x00008678                translate

.glue_7         0x000086c0        0x0
 .glue_7        0x00000000        0x0 linker stubs

.glue_7t        0x000086c0        0x0
 .glue_7t       0x00000000        0x0 linker stubs

.vfp11_veneer   0x000086c0        0x0
 .vfp11_veneer  0x00000000        0x0 linker stubs

.v4_bx          0x000086c0        0x0
 .v4_bx         0x00000000        0x0 linker stubs

.iplt           0x000086c0        0x0
 .iplt          0x00000000        0x0 build/boot.o

.bss            0x000086c0        0x0
 *(.bss*)
 .bss           0x000086c0        0x0 build/boot.o
 .bss           0x000086c0        0x0 build/main.o
 .bss           0x000086c0        0x0 build/gpio.o
 .bss           0x000086c0        0x0 build/uart.o
 .bss           0x000086c0        0x0 build/system_timer.o
 .bss           0x000086c0        0x0 build/morse.o

.rodata         0x000086c0      0x2e0
 *(.rodata*)
 .rodata.str1.4
                0x000086c0       0x2f build/main.o
                                 0x30 (size before relaxing)
 .rodata.str1.4
                0x00000000        0x4 build/uart.o
 *fill*         0x000086ef        0x1 
 .rodata        0x000086f0      0x1cc build/morse.o
 .rodata.str1.4
                0x000088bc       0xe4 build/morse.o
                                 0xf0 (size before relaxing)

.rel.dyn        0x000089a0        0x0
 .rel.iplt      0x00000000        0x0 build/boot.o

.data           0x000089a0       0x48
 *(.data*)
 .data          0x000089a0        0x0 build/boot.o
 .data          0x000089a0        0x0 build/main.o
 .data          0x000089a0       0x44 build/gpio.o
                0x000089a0                pin_to_gpio_array
                0x000089c8                gpio_to_pin_array
 .data          0x000089e4        0x0 build/uart.o
 .data          0x000089e4        0x4 build/system_timer.o
                0x000089e4                time_unit
 .data          0x000089e8        0x0 build/morse.o
OUTPUT(build/output.elf elf32-littlearm)

.igot.plt       0x000089e8        0x0
 .igot.plt      0x00000000        0x0 build/boot.o

.ARM.attributes
                0x00000000       0x33
 .ARM.attributes
                0x00000000       0x14 build/boot.o
 .ARM.attributes
                0x00000014       0x37 build/main.o
 .ARM.attributes
                0x0000004b       0x37 build/gpio.o
 .ARM.attributes
                0x00000082       0x37 build/uart.o
 .ARM.attributes
                0x000000b9       0x37 build/system_timer.o
 .ARM.attributes
                0x000000f0       0x37 build/morse.o

.comment        0x00000000       0x11
 .comment       0x00000000       0x11 build/main.o
                                 0x12 (size before relaxing)
 .comment       0x00000000       0x12 build/gpio.o
 .comment       0x00000000       0x12 build/uart.o
 .comment       0x00000000       0x12 build/system_timer.o
 .comment       0x00000000       0x12 build/morse.o
