   1              		.arch armv7-a
   2              		.eabi_attribute 27, 3
   3              		.eabi_attribute 28, 1
   4              		.fpu neon-vfpv4
   5              		.eabi_attribute 20, 1
   6              		.eabi_attribute 21, 1
   7              		.eabi_attribute 23, 3
   8              		.eabi_attribute 24, 1
   9              		.eabi_attribute 25, 1
  10              		.eabi_attribute 26, 1
  11              		.eabi_attribute 30, 2
  12              		.eabi_attribute 34, 1
  13              		.eabi_attribute 18, 4
  14              		.file	"main.c"
  15              		.text
  16              		.align	2
  17              		.global	blink_once
  19              	blink_once:
  20              		@ args = 0, pretend = 0, frame = 0
  21              		@ frame_needed = 0, uses_anonymous_args = 0
  22 0000 10402DE9 		stmfd	sp!, {r4, lr}
  23 0004 0040A0E3 		mov	r4, #0
  24 0008 204F43E3 		movt	r4, 16160
  25 000c 1C3094E5 		ldr	r3, [r4, #28]
  26 0010 7D0FA0E3 		mov	r0, #500
  27 0014 013483E3 		orr	r3, r3, #16777216
  28 0018 1C3084E5 		str	r3, [r4, #28]
  29 001c FEFFFFEB 		bl	timer_delay_ms
  30 0020 283094E5 		ldr	r3, [r4, #40]
  31 0024 7D0FA0E3 		mov	r0, #500
  32 0028 013483E3 		orr	r3, r3, #16777216
  33 002c 283084E5 		str	r3, [r4, #40]
  34 0030 1040BDE8 		ldmfd	sp!, {r4, lr}
  35 0034 FEFFFFEA 		b	timer_delay_ms
  37              		.align	2
  38              		.global	blink_code
  40              	blink_code:
  41              		@ args = 0, pretend = 0, frame = 0
  42              		@ frame_needed = 0, uses_anonymous_args = 0
  43 0038 38402DE9 		stmfd	sp!, {r3, r4, r5, lr}
  44 003c 005050E2 		subs	r5, r0, #0
  45 0040 0040A013 		movne	r4, #0
  46 0044 0300000A 		beq	.L5
  47              	.L4:
  48 0048 014084E2 		add	r4, r4, #1
  49 004c FEFFFFEB 		bl	blink_once
  50 0050 050054E1 		cmp	r4, r5
  51 0054 FBFFFF1A 		bne	.L4
  52              	.L5:
  53 0058 940101E3 		movw	r0, #4500
  54 005c 3840BDE8 		ldmfd	sp!, {r3, r4, r5, lr}
  55 0060 FEFFFFEA 		b	timer_delay_ms
  57              		.section	.text.startup,"ax",%progbits
  58              		.align	2
  59              		.global	main
  61              	main:
  62              		@ args = 0, pretend = 0, frame = 16
  63              		@ frame_needed = 0, uses_anonymous_args = 0
  64 0000 F04F2DE9 		stmfd	sp!, {r4, r5, r6, r7, r8, r9, sl, fp, lr}
  65 0004 14D04DE2 		sub	sp, sp, #20
  66              	.L57:
  67 0008 DC029FE5 		ldr	r0, .L60
  68 000c FEFFFFEB 		bl	put_string
  69 0010 FEFFFFEB 		bl	get_char
  70 0014 310050E3 		cmp	r0, #49
  71 0018 4600000A 		beq	.L58
  72 001c 320050E3 		cmp	r0, #50
  73 0020 F8FFFF1A 		bne	.L57
  74 0024 C4029FE5 		ldr	r0, .L60+4
  75 0028 FEFFFFEB 		bl	put_string
  76 002c C0029FE5 		ldr	r0, .L60+8
  77 0030 FEFFFFEB 		bl	put_string
  78 0034 0020A0E3 		mov	r2, #0
  79 0038 0C208DE5 		str	r2, [sp, #12]
  80              	.L25:
  81 003c 0C209DE5 		ldr	r2, [sp, #12]
  82 0040 0050A0E3 		mov	r5, #0
  83 0044 309082E3 		orr	r9, r2, #48
  84 0048 7990EFE6 		uxtb	r9, r9
  85 004c 04908DE5 		str	r9, [sp, #4]
  86              	.L30:
  87 0050 30A085E3 		orr	sl, r5, #48
  88 0054 7520EFE6 		uxtb	r2, r5
  89 0058 7AA0EFE6 		uxtb	sl, sl
  90 005c 08208DE5 		str	r2, [sp, #8]
  91 0060 00B0A0E3 		mov	fp, #0
  92              	.L29:
  93 0064 08309DE5 		ldr	r3, [sp, #8]
  94 0068 7B60EFE6 		uxtb	r6, fp
  95 006c 30808BE3 		orr	r8, fp, #48
  96 0070 037006E0 		and	r7, r6, r3
  97 0074 7880EFE6 		uxtb	r8, r8
  98 0078 307087E3 		orr	r7, r7, #48
  99 007c 0040A0E3 		mov	r4, #0
 100              	.L26:
 101 0080 04009DE5 		ldr	r0, [sp, #4]
 102 0084 FEFFFFEB 		bl	put_char
 103 0088 2000A0E3 		mov	r0, #32
 104 008c FEFFFFEB 		bl	put_char
 105 0090 0A00A0E1 		mov	r0, sl
 106 0094 FEFFFFEB 		bl	put_char
 107 0098 2000A0E3 		mov	r0, #32
 108 009c FEFFFFEB 		bl	put_char
 109 00a0 0800A0E1 		mov	r0, r8
 110 00a4 FEFFFFEB 		bl	put_char
 111 00a8 2000A0E3 		mov	r0, #32
 112 00ac FEFFFFEB 		bl	put_char
 113 00b0 300084E3 		orr	r0, r4, #48
 114 00b4 7000EFE6 		uxtb	r0, r0
 115 00b8 FEFFFFEB 		bl	put_char
 116 00bc 2000A0E3 		mov	r0, #32
 117 00c0 FEFFFFEB 		bl	put_char
 118 00c4 053084E1 		orr	r3, r4, r5
 119 00c8 013023E2 		eor	r3, r3, #1
 120 00cc 7390EFE6 		uxtb	r9, r3
 121 00d0 070089E1 		orr	r0, r9, r7
 122 00d4 FEFFFFEB 		bl	put_char
 123 00d8 2000A0E3 		mov	r0, #32
 124 00dc FEFFFFEB 		bl	put_char
 125 00e0 011024E2 		eor	r1, r4, #1
 126 00e4 011006E0 		and	r1, r6, r1
 127 00e8 010089E1 		orr	r0, r9, r1
 128 00ec 300080E3 		orr	r0, r0, #48
 129 00f0 FEFFFFEB 		bl	put_char
 130 00f4 014084E2 		add	r4, r4, #1
 131 00f8 F4019FE5 		ldr	r0, .L60+8
 132 00fc FEFFFFEB 		bl	put_string
 133 0100 020054E3 		cmp	r4, #2
 134 0104 DDFFFF1A 		bne	.L26
 135 0108 01B08BE2 		add	fp, fp, #1
 136 010c 02005BE3 		cmp	fp, #2
 137 0110 D3FFFF1A 		bne	.L29
 138 0114 015085E2 		add	r5, r5, #1
 139 0118 020055E3 		cmp	r5, #2
 140 011c CBFFFF1A 		bne	.L30
 141 0120 0C309DE5 		ldr	r3, [sp, #12]
 142 0124 013083E2 		add	r3, r3, #1
 143 0128 020053E3 		cmp	r3, #2
 144 012c 0C308DE5 		str	r3, [sp, #12]
 145 0130 C1FFFF1A 		bne	.L25
 146 0134 B3FFFFEA 		b	.L57
 147              	.L58:
 148 0138 B8019FE5 		ldr	r0, .L60+12
 149 013c FEFFFFEB 		bl	put_string
 150 0140 AC019FE5 		ldr	r0, .L60+8
 151 0144 FEFFFFEB 		bl	put_string
 152 0148 0060A0E3 		mov	r6, #0
 153              	.L11:
 154 014c 303086E3 		orr	r3, r6, #48
 155 0150 7330EFE6 		uxtb	r3, r3
 156 0154 04308DE5 		str	r3, [sp, #4]
 157 0158 013026E2 		eor	r3, r6, #1
 158 015c 0070A0E3 		mov	r7, #0
 159 0160 0C308DE5 		str	r3, [sp, #12]
 160              	.L24:
 161 0164 0C209DE5 		ldr	r2, [sp, #12]
 162 0168 30B087E3 		orr	fp, r7, #48
 163 016c 023007E0 		and	r3, r7, r2
 164 0170 013003E2 		and	r3, r3, #1
 165 0174 7BB0EFE6 		uxtb	fp, fp
 166 0178 069087E1 		orr	r9, r7, r6
 167 017c 0050A0E3 		mov	r5, #0
 168 0180 08308DE5 		str	r3, [sp, #8]
 169              	.L22:
 170 0184 30A085E3 		orr	sl, r5, #48
 171 0188 7AA0EFE6 		uxtb	sl, sl
 172 018c 098085E1 		orr	r8, r5, r9
 173 0190 0040A0E3 		mov	r4, #0
 174              	.L19:
 175 0194 04009DE5 		ldr	r0, [sp, #4]
 176 0198 FEFFFFEB 		bl	put_char
 177 019c 2000A0E3 		mov	r0, #32
 178 01a0 FEFFFFEB 		bl	put_char
 179 01a4 0B00A0E1 		mov	r0, fp
 180 01a8 FEFFFFEB 		bl	put_char
 181 01ac 2000A0E3 		mov	r0, #32
 182 01b0 FEFFFFEB 		bl	put_char
 183 01b4 0A00A0E1 		mov	r0, sl
 184 01b8 FEFFFFEB 		bl	put_char
 185 01bc 2000A0E3 		mov	r0, #32
 186 01c0 FEFFFFEB 		bl	put_char
 187 01c4 300084E3 		orr	r0, r4, #48
 188 01c8 7000EFE6 		uxtb	r0, r0
 189 01cc FEFFFFEB 		bl	put_char
 190 01d0 2000A0E3 		mov	r0, #32
 191 01d4 FEFFFFEB 		bl	put_char
 192 01d8 082094E1 		orrs	r2, r4, r8
 193 01dc 3E00000A 		beq	.L37
 194 01e0 000059E3 		cmp	r9, #0
 195 01e4 0200001A 		bne	.L13
 196 01e8 0430C5E1 		bic	r3, r5, r4
 197 01ec 010013E3 		tst	r3, #1
 198 01f0 3900001A 		bne	.L37
 199              	.L13:
 200 01f4 08309DE5 		ldr	r3, [sp, #8]
 201 01f8 000053E3 		cmp	r3, #0
 202 01fc 2F00001A 		bne	.L59
 203              	.L14:
 204 0200 063007E0 		and	r3, r7, r6
 205 0204 013013E2 		ands	r3, r3, #1
 206 0208 0700000A 		beq	.L15
 207 020c 0530C4E1 		bic	r3, r4, r5
 208 0210 010013E3 		tst	r3, #1
 209 0214 3000001A 		bne	.L37
 210 0218 053004E0 		and	r3, r4, r5
 211 021c 010013E3 		tst	r3, #1
 212 0220 2D00001A 		bne	.L37
 213 0224 013024E2 		eor	r3, r4, #1
 214 0228 033005E0 		and	r3, r5, r3
 215              	.L15:
 216 022c 012027E2 		eor	r2, r7, #1
 217 0230 062002E0 		and	r2, r2, r6
 218 0234 012012E2 		ands	r2, r2, #1
 219 0238 01202512 		eorne	r2, r5, #1
 220 023c 02200410 		andne	r2, r4, r2
 221 0240 033082E1 		orr	r3, r2, r3
 222 0244 300083E3 		orr	r0, r3, #48
 223 0248 7000EFE6 		uxtb	r0, r0
 224              	.L12:
 225 024c FEFFFFEB 		bl	put_char
 226 0250 2000A0E3 		mov	r0, #32
 227 0254 FEFFFFEB 		bl	put_char
 228 0258 063094E1 		orrs	r3, r4, r6
 229 025c 2000000A 		beq	.L40
 230 0260 0530C6E1 		bic	r3, r6, r5
 231 0264 010013E3 		tst	r3, #1
 232 0268 0100000A 		beq	.L18
 233 026c 000054E3 		cmp	r4, #0
 234 0270 1B00001A 		bne	.L40
 235              	.L18:
 236 0274 050007E0 		and	r0, r7, r5
 237 0278 300080E3 		orr	r0, r0, #48
 238 027c 7000EFE6 		uxtb	r0, r0
 239              	.L17:
 240 0280 FEFFFFEB 		bl	put_char
 241 0284 014084E2 		add	r4, r4, #1
 242 0288 64009FE5 		ldr	r0, .L60+8
 243 028c FEFFFFEB 		bl	put_string
 244 0290 020054E3 		cmp	r4, #2
 245 0294 BEFFFF1A 		bne	.L19
 246 0298 015085E2 		add	r5, r5, #1
 247 029c 020055E3 		cmp	r5, #2
 248 02a0 B7FFFF1A 		bne	.L22
 249 02a4 017087E2 		add	r7, r7, #1
 250 02a8 020057E3 		cmp	r7, #2
 251 02ac ACFFFF1A 		bne	.L24
 252 02b0 016086E2 		add	r6, r6, #1
 253 02b4 020056E3 		cmp	r6, #2
 254 02b8 A3FFFF1A 		bne	.L11
 255 02bc 51FFFFEA 		b	.L57
 256              	.L59:
 257 02c0 052094E1 		orrs	r2, r4, r5
 258 02c4 0400000A 		beq	.L37
 259 02c8 013024E2 		eor	r3, r4, #1
 260 02cc 043083E1 		orr	r3, r3, r4
 261 02d0 053003E0 		and	r3, r3, r5
 262 02d4 010013E3 		tst	r3, #1
 263 02d8 C8FFFF0A 		beq	.L14
 264              	.L37:
 265 02dc 3100A0E3 		mov	r0, #49
 266 02e0 D9FFFFEA 		b	.L12
 267              	.L40:
 268 02e4 3100A0E3 		mov	r0, #49
 269 02e8 E4FFFFEA 		b	.L17
 270              	.L61:
 271              		.align	2
 272              	.L60:
 273 02ec 00000000 		.word	.LC0
 274 02f0 20000000 		.word	.LC3
 275 02f4 1C000000 		.word	.LC2
 276 02f8 10000000 		.word	.LC1
 278              		.section	.rodata.str1.4,"aMS",%progbits,1
 279              		.align	2
 280              	.LC0:
 281 0000 456E7465 		.ascii	"Enter 1 or 2:\015\012\000"
 281      72203120 
 281      6F722032 
 281      3A0D0A00 
 282              	.LC1:
 283 0010 77207820 		.ascii	"w x y z f g\000"
 283      79207A20 
 283      66206700 
 284              	.LC2:
 285 001c 0D0A00   		.ascii	"\015\012\000"
 286 001f 00       		.space	1
 287              	.LC3:
 288 0020 61206220 		.ascii	"a b c d R1 R2\000"
 288      63206420 
 288      52312052 
 288      3200
 289 002e 0000     		.ident	"GCC: (GNU) 4.7.2"
