   1              		.arch armv7-a
   2              		.eabi_attribute 27, 3
   3              		.eabi_attribute 28, 1
   4              		.fpu neon-vfpv4
   5              		.eabi_attribute 20, 1
   6              		.eabi_attribute 21, 1
   7              		.eabi_attribute 23, 3
   8              		.eabi_attribute 24, 1
   9              		.eabi_attribute 25, 1
  10              		.eabi_attribute 26, 1
  11              		.eabi_attribute 30, 2
  12              		.eabi_attribute 34, 1
  13              		.eabi_attribute 18, 4
  14              		.file	"system_timer.c"
  15              		.text
  16              		.align	2
  17              		.global	timer_delay_us
  19              	timer_delay_us:
  20              		@ args = 0, pretend = 0, frame = 0
  21              		@ frame_needed = 0, uses_anonymous_args = 0
  22              		@ link register save eliminated.
  23 0000 033AA0E3 		mov	r3, #12288
  24 0004 003F43E3 		movt	r3, 16128
  25 0008 042093E5 		ldr	r2, [r3, #4]
  26 000c 0110A0E3 		mov	r1, #1
  27 0010 020080E0 		add	r0, r0, r2
  28 0014 0C0083E5 		str	r0, [r3, #12]
  29 0018 0320A0E1 		mov	r2, r3
  30 001c 001083E5 		str	r1, [r3, #0]
  31              	.L2:
  32 0020 003092E5 		ldr	r3, [r2, #0]
  33 0024 010013E3 		tst	r3, #1
  34 0028 FCFFFF0A 		beq	.L2
  35 002c 1EFF2FE1 		bx	lr
  37              		.align	2
  38              		.global	timer_delay_ms
  40              	timer_delay_ms:
  41              		@ args = 0, pretend = 0, frame = 0
  42              		@ frame_needed = 0, uses_anonymous_args = 0
  43              		@ link register save eliminated.
  44 0030 033AA0E3 		mov	r3, #12288
  45 0034 003F43E3 		movt	r3, 16128
  46 0038 042093E5 		ldr	r2, [r3, #4]
  47 003c FA1FA0E3 		mov	r1, #1000
  48 0040 912020E0 		mla	r0, r1, r0, r2
  49 0044 0110A0E3 		mov	r1, #1
  50 0048 0C0083E5 		str	r0, [r3, #12]
  51 004c 0320A0E1 		mov	r2, r3
  52 0050 001083E5 		str	r1, [r3, #0]
  53              	.L9:
  54 0054 003092E5 		ldr	r3, [r2, #0]
  55 0058 010013E3 		tst	r3, #1
  56 005c FCFFFF0A 		beq	.L9
  57 0060 1EFF2FE1 		bx	lr
  59              		.align	2
  60              		.global	timer_delay_sec
  62              	timer_delay_sec:
  63              		@ args = 0, pretend = 0, frame = 0
  64              		@ frame_needed = 0, uses_anonymous_args = 0
  65              		@ link register save eliminated.
  66 0064 033AA0E3 		mov	r3, #12288
  67 0068 003F43E3 		movt	r3, 16128
  68 006c 041093E5 		ldr	r1, [r3, #4]
  69 0070 402204E3 		movw	r2, #16960
  70 0074 0F2040E3 		movt	r2, 15
  71 0078 921020E0 		mla	r0, r2, r0, r1
  72 007c 0110A0E3 		mov	r1, #1
  73 0080 0C0083E5 		str	r0, [r3, #12]
  74 0084 0320A0E1 		mov	r2, r3
  75 0088 001083E5 		str	r1, [r3, #0]
  76              	.L15:
  77 008c 003092E5 		ldr	r3, [r2, #0]
  78 0090 010013E3 		tst	r3, #1
  79 0094 FCFFFF0A 		beq	.L15
  80 0098 1EFF2FE1 		bx	lr
  82              		.align	2
  83              		.global	timer_one_unit
  85              	timer_one_unit:
  86              		@ args = 0, pretend = 0, frame = 0
  87              		@ frame_needed = 0, uses_anonymous_args = 0
  88              		@ link register save eliminated.
  89 009c 033AA0E3 		mov	r3, #12288
  90 00a0 30209FE5 		ldr	r2, .L26
  91 00a4 003F43E3 		movt	r3, 16128
  92 00a8 041093E5 		ldr	r1, [r3, #4]
  93 00ac 002092E5 		ldr	r2, [r2, #0]
  94 00b0 FA0FA0E3 		mov	r0, #1000
  95 00b4 901222E0 		mla	r2, r0, r2, r1
  96 00b8 0110A0E3 		mov	r1, #1
  97 00bc 0C2083E5 		str	r2, [r3, #12]
  98 00c0 0320A0E1 		mov	r2, r3
  99 00c4 001083E5 		str	r1, [r3, #0]
 100              	.L21:
 101 00c8 003092E5 		ldr	r3, [r2, #0]
 102 00cc 010013E3 		tst	r3, #1
 103 00d0 FCFFFF0A 		beq	.L21
 104 00d4 1EFF2FE1 		bx	lr
 105              	.L27:
 106              		.align	2
 107              	.L26:
 108 00d8 00000000 		.word	.LANCHOR0
 110              		.align	2
 111              		.global	timer_three_unit
 113              	timer_three_unit:
 114              		@ args = 0, pretend = 0, frame = 0
 115              		@ frame_needed = 0, uses_anonymous_args = 0
 116              		@ link register save eliminated.
 117 00dc 38209FE5 		ldr	r2, .L34
 118 00e0 033AA0E3 		mov	r3, #12288
 119 00e4 003F43E3 		movt	r3, 16128
 120 00e8 002092E5 		ldr	r2, [r2, #0]
 121 00ec 041093E5 		ldr	r1, [r3, #4]
 122 00f0 822082E0 		add	r2, r2, r2, asl #1
 123 00f4 FA0FA0E3 		mov	r0, #1000
 124 00f8 901222E0 		mla	r2, r0, r2, r1
 125 00fc 0110A0E3 		mov	r1, #1
 126 0100 0C2083E5 		str	r2, [r3, #12]
 127 0104 0320A0E1 		mov	r2, r3
 128 0108 001083E5 		str	r1, [r3, #0]
 129              	.L29:
 130 010c 003092E5 		ldr	r3, [r2, #0]
 131 0110 010013E3 		tst	r3, #1
 132 0114 FCFFFF0A 		beq	.L29
 133 0118 1EFF2FE1 		bx	lr
 134              	.L35:
 135              		.align	2
 136              	.L34:
 137 011c 00000000 		.word	.LANCHOR0
 139              		.align	2
 140              		.global	end_of_char
 142              	end_of_char:
 143              		@ args = 0, pretend = 0, frame = 0
 144              		@ frame_needed = 0, uses_anonymous_args = 0
 145              		@ link register save eliminated.
 146 0120 38209FE5 		ldr	r2, .L42
 147 0124 033AA0E3 		mov	r3, #12288
 148 0128 003F43E3 		movt	r3, 16128
 149 012c 002092E5 		ldr	r2, [r2, #0]
 150 0130 041093E5 		ldr	r1, [r3, #4]
 151 0134 8220A0E1 		mov	r2, r2, asl #1
 152 0138 FA0FA0E3 		mov	r0, #1000
 153 013c 901222E0 		mla	r2, r0, r2, r1
 154 0140 0110A0E3 		mov	r1, #1
 155 0144 0C2083E5 		str	r2, [r3, #12]
 156 0148 0320A0E1 		mov	r2, r3
 157 014c 001083E5 		str	r1, [r3, #0]
 158              	.L37:
 159 0150 003092E5 		ldr	r3, [r2, #0]
 160 0154 010013E3 		tst	r3, #1
 161 0158 FCFFFF0A 		beq	.L37
 162 015c 1EFF2FE1 		bx	lr
 163              	.L43:
 164              		.align	2
 165              	.L42:
 166 0160 00000000 		.word	.LANCHOR0
 168              		.align	2
 169              		.global	end_of_word
 171              	end_of_word:
 172              		@ args = 0, pretend = 0, frame = 0
 173              		@ frame_needed = 0, uses_anonymous_args = 0
 174              		@ link register save eliminated.
 175 0164 38209FE5 		ldr	r2, .L50
 176 0168 033AA0E3 		mov	r3, #12288
 177 016c 003F43E3 		movt	r3, 16128
 178 0170 002092E5 		ldr	r2, [r2, #0]
 179 0174 041093E5 		ldr	r1, [r3, #4]
 180 0178 022182E0 		add	r2, r2, r2, asl #2
 181 017c FA0FA0E3 		mov	r0, #1000
 182 0180 901222E0 		mla	r2, r0, r2, r1
 183 0184 0110A0E3 		mov	r1, #1
 184 0188 0C2083E5 		str	r2, [r3, #12]
 185 018c 0320A0E1 		mov	r2, r3
 186 0190 001083E5 		str	r1, [r3, #0]
 187              	.L45:
 188 0194 003092E5 		ldr	r3, [r2, #0]
 189 0198 010013E3 		tst	r3, #1
 190 019c FCFFFF0A 		beq	.L45
 191 01a0 1EFF2FE1 		bx	lr
 192              	.L51:
 193              		.align	2
 194              	.L50:
 195 01a4 00000000 		.word	.LANCHOR0
 197              		.global	time_unit
 198              		.data
 199              		.align	2
 200              		.set	.LANCHOR0,. + 0
 203              	time_unit:
 204 0000 2C010000 		.word	300
 205              		.ident	"GCC: (GNU) 4.7.2"
